target datalayout = "e-m:e-p270:32:32-p271:32:32-p272:64:64-i64:64-i128:128-f80:128-n8:16:32:64-S128"
target triple = "x86_64-pc-linux-gnu"

%"class.llvm::DIEDwarfExpression" = type <{ %"class.llvm::DwarfExpression", ptr, ptr, %"class.llvm::DIELoc", i8, [7 x i8] }>
%"class.llvm::DwarfExpression" = type { ptr, i8, ptr, %"class.llvm::SmallVector", i64, i32, i16, %"class.std::optional" }
%"class.llvm::SmallVector" = type { %"class.llvm::SmallVectorImpl", %"struct.llvm::SmallVectorStorage" }
%"class.llvm::SmallVectorImpl" = type { %"class.llvm::SmallVectorTemplateBase" }
%"class.llvm::SmallVectorTemplateBase" = type { %"class.llvm::SmallVectorTemplateCommon" }
%"class.llvm::SmallVectorTemplateCommon" = type { %"class.llvm::SmallVectorBase" }
%"class.llvm::SmallVectorBase" = type { ptr, i32, i32 }
%"struct.llvm::SmallVectorStorage" = type { [32 x i8] }
%"class.std::optional" = type { %"struct.std::_Optional_base" }
%"struct.std::_Optional_base" = type { %"struct.std::_Optional_payload" }
%"struct.std::_Optional_payload" = type { %"struct.std::_Optional_payload_base" }
%"struct.std::_Optional_payload_base" = type { %"union.std::_Optional_payload_base<unsigned char>::_Storage", i8 }
%"union.std::_Optional_payload_base<unsigned char>::_Storage" = type { %"struct.std::_Optional_payload_base<unsigned char>::_Empty_byte" }
%"struct.std::_Optional_payload_base<unsigned char>::_Empty_byte" = type { i8 }
%"class.llvm::DIELoc" = type <{ %"class.llvm::DIEValueList", i32, [4 x i8] }>
%"class.llvm::DIEValueList" = type { %"class.llvm::IntrusiveBackList" }
%"class.llvm::IntrusiveBackList" = type { %"struct.llvm::IntrusiveBackListBase" }
%"struct.llvm::IntrusiveBackListBase" = type { ptr }

; Function Attrs: mustprogress nounwind uwtable
define linkonce_odr hidden void @_ZNSt22_Optional_payload_baseIhE8_StorageIhLb1EEC2Ev(ptr noundef nonnull align 1 dereferenceable(1) %0) unnamed_addr #0 comdat align 2 {
  %2 = alloca ptr, align 8
  store ptr %0, ptr %2, align 8
  ret void
}

; Function Attrs: mustprogress nounwind uwtable
define linkonce_odr hidden noundef ptr @_ZNK4llvm25SmallVectorTemplateCommonINS_15DwarfExpression8RegisterEvE10getFirstElEv(ptr noundef nonnull align 8 dereferenceable(16) %0) #0 comdat align 2 {
  %2 = alloca ptr, align 8
  store ptr %0, ptr %2, align 8
  %3 = load ptr, ptr %2, align 8
  %4 = getelementptr inbounds i8, ptr %3, i64 16
  ret ptr %4
}

; Function Attrs: mustprogress nounwind uwtable
define linkonce_odr hidden void @_ZNSt22_Optional_payload_baseIhEC2Ev(ptr noundef nonnull align 1 dereferenceable(2) %0) unnamed_addr #0 comdat align 2 {
  %2 = alloca ptr, align 8
  store ptr %0, ptr %2, align 8
  %3 = load ptr, ptr %2, align 8
  %4 = getelementptr inbounds nuw %"struct.std::_Optional_payload_base", ptr %3, i32 0, i32 0
  call void @_ZNSt22_Optional_payload_baseIhE8_StorageIhLb1EEC2Ev(ptr noundef nonnull align 1 dereferenceable(1) %4) #12
  %5 = getelementptr inbounds nuw %"struct.std::_Optional_payload_base", ptr %3, i32 0, i32 1
  store i8 0, ptr %5, align 1
  ret void
}

; Function Attrs: mustprogress nounwind uwtable
define linkonce_odr hidden void @_ZN4llvm25SmallVectorTemplateCommonINS_15DwarfExpression8RegisterEvEC2Em(ptr noundef nonnull align 8 dereferenceable(16) %0, i64 noundef %1) unnamed_addr #0 comdat align 2 {
  %3 = alloca ptr, align 8
  %4 = alloca i64, align 8
  store ptr %0, ptr %3, align 8
  store i64 %1, ptr %4, align 8
  %5 = load ptr, ptr %3, align 8
  %6 = call noundef ptr @_ZNK4llvm25SmallVectorTemplateCommonINS_15DwarfExpression8RegisterEvE10getFirstElEv(ptr noundef nonnull align 8 dereferenceable(16) %5)
  %7 = load i64, ptr %4, align 8
  call void @_ZN4llvm15SmallVectorBaseIjEC2EPvm(ptr noundef nonnull align 8 dereferenceable(16) %5, ptr noundef %6, i64 noundef %7)
  ret void
}

; Function Attrs: mustprogress nounwind uwtable
define linkonce_odr hidden void @_ZN4llvm21IntrusiveBackListBaseC2Ev(ptr noundef nonnull align 8 dereferenceable(8) %0) unnamed_addr #0 comdat align 2 {
  %2 = alloca ptr, align 8
  store ptr %0, ptr %2, align 8
  %3 = load ptr, ptr %2, align 8
  %4 = getelementptr inbounds nuw %"struct.llvm::IntrusiveBackListBase", ptr %3, i32 0, i32 0
  store ptr null, ptr %4, align 8
  ret void
}

; Function Attrs: mustprogress nounwind uwtable
define linkonce_odr hidden void @_ZNSt17_Optional_payloadIhLb1ELb1ELb1EEC2Ev(ptr noundef nonnull align 1 dereferenceable(2) %0) unnamed_addr #0 comdat align 2 {
  %2 = alloca ptr, align 8
  store ptr %0, ptr %2, align 8
  %3 = load ptr, ptr %2, align 8
  call void @_ZNSt22_Optional_payload_baseIhEC2Ev(ptr noundef nonnull align 1 dereferenceable(2) %3) #12
  ret void
}

; Function Attrs: mustprogress nounwind uwtable
define linkonce_odr hidden void @_ZN4llvm23SmallVectorTemplateBaseINS_15DwarfExpression8RegisterELb1EEC2Em(ptr noundef nonnull align 8 dereferenceable(16) %0, i64 noundef %1) unnamed_addr #0 comdat align 2 {
  %3 = alloca ptr, align 8
  %4 = alloca i64, align 8
  store ptr %0, ptr %3, align 8
  store i64 %1, ptr %4, align 8
  %5 = load ptr, ptr %3, align 8
  %6 = load i64, ptr %4, align 8
  call void @_ZN4llvm25SmallVectorTemplateCommonINS_15DwarfExpression8RegisterEvEC2Em(ptr noundef nonnull align 8 dereferenceable(16) %5, i64 noundef %6)
  ret void
}

; Function Attrs: mustprogress nounwind uwtable
define linkonce_odr hidden void @_ZN4llvm17IntrusiveBackListINS_12DIEValueList4NodeEEC2Ev(ptr noundef nonnull align 8 dereferenceable(8) %0) unnamed_addr #0 comdat align 2 {
  %2 = alloca ptr, align 8
  store ptr %0, ptr %2, align 8
  %3 = load ptr, ptr %2, align 8
  call void @_ZN4llvm21IntrusiveBackListBaseC2Ev(ptr noundef nonnull align 8 dereferenceable(8) %3) #12
  ret void
}

; Function Attrs: mustprogress nounwind uwtable
define linkonce_odr hidden void @_ZNSt14_Optional_baseIhLb1ELb1EEC2Ev(ptr noundef nonnull align 1 dereferenceable(2) %0) unnamed_addr #0 comdat align 2 {
  %2 = alloca ptr, align 8
  store ptr %0, ptr %2, align 8
  %3 = load ptr, ptr %2, align 8
  %4 = getelementptr inbounds nuw %"struct.std::_Optional_base", ptr %3, i32 0, i32 0
  call void @_ZNSt17_Optional_payloadIhLb1ELb1ELb1EEC2Ev(ptr noundef nonnull align 1 dereferenceable(2) %4) #12
  ret void
}

; Function Attrs: mustprogress nounwind uwtable
define linkonce_odr hidden void @_ZN4llvm15SmallVectorImplINS_15DwarfExpression8RegisterEEC2Ej(ptr noundef nonnull align 8 dereferenceable(16) %0, i32 noundef %1) unnamed_addr #0 comdat align 2 {
  %3 = alloca ptr, align 8
  %4 = alloca i32, align 4
  store ptr %0, ptr %3, align 8
  store i32 %1, ptr %4, align 4
  %5 = load ptr, ptr %3, align 8
  %6 = load i32, ptr %4, align 4
  %7 = zext i32 %6 to i64
  call void @_ZN4llvm23SmallVectorTemplateBaseINS_15DwarfExpression8RegisterELb1EEC2Em(ptr noundef nonnull align 8 dereferenceable(16) %5, i64 noundef %7)
  ret void
}

; Function Attrs: mustprogress nounwind uwtable
define linkonce_odr hidden void @_ZN4llvm12DIEValueListC2Ev(ptr noundef nonnull align 8 dereferenceable(8) %0) unnamed_addr #0 comdat align 2 {
  %2 = alloca ptr, align 8
  store ptr %0, ptr %2, align 8
  %3 = load ptr, ptr %2, align 8
  %4 = getelementptr inbounds nuw %"class.llvm::DIEValueList", ptr %3, i32 0, i32 0
  call void @_ZN4llvm17IntrusiveBackListINS_12DIEValueList4NodeEEC2Ev(ptr noundef nonnull align 8 dereferenceable(8) %4) #12
  ret void
}

; Function Attrs: mustprogress nounwind uwtable
define linkonce_odr hidden void @_ZNSt8optionalIhEC2Ev(ptr noundef nonnull align 1 dereferenceable(2) %0) unnamed_addr #0 comdat align 2 {
  %2 = alloca ptr, align 8
  store ptr %0, ptr %2, align 8
  %3 = load ptr, ptr %2, align 8
  call void @_ZNSt14_Optional_baseIhLb1ELb1EEC2Ev(ptr noundef nonnull align 1 dereferenceable(2) %3) #12
  ret void
}

; Function Attrs: mustprogress nounwind uwtable
define linkonce_odr hidden void @_ZN4llvm11SmallVectorINS_15DwarfExpression8RegisterELj2EEC2Ev(ptr noundef nonnull align 8 dereferenceable(48) %0) unnamed_addr #0 comdat align 2 {
  %2 = alloca ptr, align 8
  store ptr %0, ptr %2, align 8
  %3 = load ptr, ptr %2, align 8
  call void @_ZN4llvm15SmallVectorImplINS_15DwarfExpression8RegisterEEC2Ej(ptr noundef nonnull align 8 dereferenceable(16) %3, i32 noundef 2)
  ret void
}

; Function Attrs: mustprogress nounwind uwtable
define linkonce_odr hidden void @_ZN4llvm6DIELocC2Ev(ptr noundef nonnull align 8 dereferenceable(12) %0) unnamed_addr #0 comdat align 2 {
  %2 = alloca ptr, align 8
  store ptr %0, ptr %2, align 8
  %3 = load ptr, ptr %2, align 8
  call void @_ZN4llvm12DIEValueListC2Ev(ptr noundef nonnull align 8 dereferenceable(8) %3) #12
  %4 = getelementptr inbounds nuw %"class.llvm::DIELoc", ptr %3, i32 0, i32 1
  store i32 0, ptr %4, align 8
  ret void
}

; Function Attrs: mustprogress nounwind uwtable
define linkonce_odr hidden void @_ZN4llvm15DwarfExpressionC2EjRNS_16DwarfCompileUnitE(ptr noundef nonnull align 8 dereferenceable(88) %0, i32 noundef %1, ptr noundef nonnull align 8 dereferenceable(696) %2) unnamed_addr #0 comdat align 2 {
  %4 = alloca ptr, align 8
  %5 = alloca i32, align 4
  %6 = alloca ptr, align 8
  store ptr %0, ptr %4, align 8
  store i32 %1, ptr %5, align 4
  store ptr %2, ptr %6, align 8
  %7 = load ptr, ptr %4, align 8
  store ptr getelementptr inbounds inrange(-16, 80) ({ [12 x ptr] }, ptr @_ZTVN4llvm15DwarfExpressionE, i32 0, i32 0, i32 2), ptr %7, align 8
  %8 = getelementptr inbounds nuw %"class.llvm::DwarfExpression", ptr %7, i32 0, i32 1
  store i8 0, ptr %8, align 8
  %9 = getelementptr inbounds nuw %"class.llvm::DwarfExpression", ptr %7, i32 0, i32 2
  %10 = load ptr, ptr %6, align 8
  store ptr %10, ptr %9, align 8
  %11 = getelementptr inbounds nuw %"class.llvm::DwarfExpression", ptr %7, i32 0, i32 3
  call void @_ZN4llvm11SmallVectorINS_15DwarfExpression8RegisterELj2EEC2Ev(ptr noundef nonnull align 8 dereferenceable(48) %11)
  %12 = getelementptr inbounds nuw %"class.llvm::DwarfExpression", ptr %7, i32 0, i32 4
  store i64 0, ptr %12, align 8
  %13 = getelementptr inbounds nuw %"class.llvm::DwarfExpression", ptr %7, i32 0, i32 5
  %14 = load i32, ptr %13, align 8
  %15 = and i32 %14, -65536
  %16 = or i32 %15, 0
  store i32 %16, ptr %13, align 8
  %17 = getelementptr inbounds nuw %"class.llvm::DwarfExpression", ptr %7, i32 0, i32 5
  %18 = load i32, ptr %17, align 8
  %19 = and i32 %18, 65535
  %20 = or i32 %19, 0
  store i32 %20, ptr %17, align 8
  %21 = getelementptr inbounds nuw %"class.llvm::DwarfExpression", ptr %7, i32 0, i32 6
  %22 = load i16, ptr %21, align 4
  %23 = and i16 %22, -8
  %24 = or i16 %23, 0
  store i16 %24, ptr %21, align 4
  %25 = getelementptr inbounds nuw %"class.llvm::DwarfExpression", ptr %7, i32 0, i32 6
  %26 = load i16, ptr %25, align 4
  %27 = and i16 %26, -57
  %28 = or i16 %27, 0
  store i16 %28, ptr %25, align 4
  %29 = getelementptr inbounds nuw %"class.llvm::DwarfExpression", ptr %7, i32 0, i32 6
  %30 = load i16, ptr %29, align 4
  %31 = and i16 %30, -449
  %32 = or i16 %31, 0
  store i16 %32, ptr %29, align 4
  %33 = getelementptr inbounds nuw %"class.llvm::DwarfExpression", ptr %7, i32 0, i32 6
  %34 = load i32, ptr %5, align 4
  %35 = trunc i32 %34 to i16
  %36 = load i16, ptr %33, align 4
  %37 = and i16 %35, 15
  %38 = shl i16 %37, 9
  %39 = and i16 %36, -7681
  %40 = or i16 %39, %38
  store i16 %40, ptr %33, align 4
  %41 = getelementptr inbounds nuw %"class.llvm::DwarfExpression", ptr %7, i32 0, i32 7
  call void @_ZNSt8optionalIhEC2Ev(ptr noundef nonnull align 1 dereferenceable(2) %41) #12
  ret void
}

; Function Attrs: mustprogress nounwind uwtable
define dso_local void @_ZN4llvm18DIEDwarfExpressionC2ERKNS_10AsmPrinterERNS_16DwarfCompileUnitERNS_6DIELocE(ptr noundef nonnull align 8 dereferenceable(128) %0, ptr noundef nonnull align 8 dereferenceable(785) %1, ptr noundef nonnull align 8 dereferenceable(696) %2, ptr noundef nonnull align 8 dereferenceable(12) %3) unnamed_addr #0 align 2 {
  %5 = alloca ptr, align 8
  %6 = alloca ptr, align 8
  %7 = alloca ptr, align 8
  %8 = alloca ptr, align 8
  store ptr %0, ptr %5, align 8
  store ptr %1, ptr %6, align 8
  store ptr %2, ptr %7, align 8
  store ptr %3, ptr %8, align 8
  %9 = load ptr, ptr %5, align 8
  %10 = load ptr, ptr %6, align 8
  %11 = call noundef zeroext i16 @_ZNK4llvm10AsmPrinter15getDwarfVersionEv(ptr noundef nonnull align 8 dereferenceable(785) %10)
  %12 = zext i16 %11 to i32
  %13 = load ptr, ptr %7, align 8
  call void @_ZN4llvm15DwarfExpressionC2EjRNS_16DwarfCompileUnitE(ptr noundef nonnull align 8 dereferenceable(88) %9, i32 noundef %12, ptr noundef nonnull align 8 dereferenceable(696) %13)
  store ptr getelementptr inbounds inrange(-16, 80) ({ [12 x ptr] }, ptr @_ZTVN4llvm18DIEDwarfExpressionE, i32 0, i32 0, i32 2), ptr %9, align 8
  %14 = getelementptr inbounds nuw %"class.llvm::DIEDwarfExpression", ptr %9, i32 0, i32 1
  %15 = load ptr, ptr %6, align 8
  store ptr %15, ptr %14, align 8
  %16 = getelementptr inbounds nuw %"class.llvm::DIEDwarfExpression", ptr %9, i32 0, i32 2
  %17 = load ptr, ptr %8, align 8
  store ptr %17, ptr %16, align 8
  %18 = getelementptr inbounds nuw %"class.llvm::DIEDwarfExpression", ptr %9, i32 0, i32 3
  call void @_ZN4llvm6DIELocC2Ev(ptr noundef nonnull align 8 dereferenceable(12) %18) #12
  %19 = getelementptr inbounds nuw %"class.llvm::DIEDwarfExpression", ptr %9, i32 0, i32 4
  store i8 0, ptr %19, align 8
  ret void
}