; Function Attrs: mustprogress nounwind uwtable
define dso_local void @_ZN4llvm18DIEDwarfExpressionC2ERKNS_10AsmPrinterERNS_16DwarfCompileUnitERNS_6DIELocE(ptr noundef nonnull align 8 dereferenceable(128) %0, ptr noundef nonnull align 8 dereferenceable(785) %1, ptr noundef nonnull align 8 dereferenceable(696) %2, ptr noundef nonnull align 8 dereferenceable(12) %3) unnamed_addr #0 align 2 {
  %5 = tail call noundef zeroext i16 @_ZNK4llvm10AsmPrinter15getDwarfVersionEv(ptr noundef nonnull align 8 dereferenceable(785) %1) #19
  store ptr getelementptr inbounds inrange(-16, 80) (i8, ptr @_ZTVN4llvm15DwarfExpressionE, i64 16), ptr %0, align 8
  %6 = getelementptr inbounds nuw i8, ptr %0, i64 8
  store i8 0, ptr %6, align 8
  %7 = getelementptr inbounds nuw i8, ptr %0, i64 16
  store ptr %2, ptr %7, align 8
  %8 = getelementptr inbounds nuw i8, ptr %0, i64 24
  %9 = getelementptr inbounds i8, ptr %0, i64 40
  tail call void @_ZN4llvm15SmallVectorBaseIjEC2EPvm(ptr noundef nonnull align 8 dereferenceable(16) %8, ptr noundef nonnull %9, i64 noundef 2) #19
  %10 = getelementptr inbounds nuw i8, ptr %0, i64 72
  store i64 0, ptr %10, align 8
  %11 = getelementptr inbounds nuw i8, ptr %0, i64 80
  store i32 0, ptr %11, align 8
  %12 = getelementptr inbounds nuw i8, ptr %0, i64 84
  %13 = load i16, ptr %12, align 4
  %14 = shl i16 %5, 9
  %15 = and i16 %14, 7680
  %16 = and i16 %13, -8192
  %17 = or disjoint i16 %16, %15
  store i16 %17, ptr %12, align 4
  %18 = getelementptr inbounds i8, ptr %0, i64 87
  store i8 0, ptr %18, align 1
  store ptr getelementptr inbounds inrange(-16, 80) (i8, ptr @_ZTVN4llvm18DIEDwarfExpressionE, i64 16), ptr %0, align 8
  %19 = getelementptr inbounds nuw i8, ptr %0, i64 88
  store ptr %1, ptr %19, align 8
  %20 = getelementptr inbounds nuw i8, ptr %0, i64 96
  store ptr %3, ptr %20, align 8
  %21 = getelementptr inbounds nuw i8, ptr %0, i64 104
  store ptr null, ptr %21, align 8
  %22 = getelementptr inbounds i8, ptr %0, i64 112
  store i32 0, ptr %22, align 8
  %23 = getelementptr inbounds nuw i8, ptr %0, i64 120
  store i8 0, ptr %23, align 8
  ret void
}